; Function Attrs: mustprogress nofree norecurse nosync nounwind sspstrong willreturn memory(argmem: readwrite) uwtable
define internal void @vfio_pci_compute_needs_reset(ptr noundef captures(none) %vbasedev) #16 {
entry:
  %reset_works = getelementptr inbounds nuw i8, ptr %vbasedev, i64 96
  %0 = load i8, ptr %reset_works, align 8
  %tobool = trunc i8 %0 to i1
  br i1 %tobool, label %lor.lhs.false, label %if.then

lor.lhs.false:                                    ; preds = %entry
  %has_flr = getelementptr i8, ptr %vbasedev, i64 936
  %1 = load i8, ptr %has_flr, align 8
  %tobool1 = trunc i8 %1 to i1
  br i1 %tobool1, label %if.end, label %land.lhs.true

land.lhs.true:                                    ; preds = %lor.lhs.false
  %has_pm_reset = getelementptr i8, ptr %vbasedev, i64 937
  %2 = load i8, ptr %has_pm_reset, align 1
  %tobool2 = trunc i8 %2 to i1
  br i1 %tobool2, label %if.then, label %if.end

if.then:                                          ; preds = %land.lhs.true, %entry
  %needs_reset = getelementptr inbounds nuw i8, ptr %vbasedev, i64 97
  store i8 1, ptr %needs_reset, align 1
  br label %if.end

if.end:                                           ; preds = %if.then, %land.lhs.true, %lor.lhs.false
  ret void
}